target datalayout = "e-m:e-p270:32:32-p271:32:32-p272:64:64-i64:64-i128:128-f80:128-n8:16:32:64-S128"
target triple = "x86_64-pc-linux-gnu"

%union.SOCKETADDRESS = type { %struct.sockaddr_in6 }
%struct.sockaddr_in6 = type { i16, i16, i32, %struct.in6_addr, i32 }
%struct.in6_addr = type { %union.anon }
%union.anon = type { [4 x i32] }
%union.__CONST_SOCKADDR_ARG = type { ptr }

; Function Attrs: nounwind uwtable
define hidden i32 @sctpHandleSocketError(ptr noundef %0, i32 noundef %1) #0 {
  %3 = alloca ptr, align 8
  %4 = alloca i32, align 4
  store ptr %0, ptr %3, align 8
  store i32 %1, ptr %4, align 4
  %5 = load ptr, ptr %3, align 8
  %6 = load i32, ptr %4, align 4
  %7 = call i32 @sctpHandleSocketErrorWithMessage(ptr noundef %5, i32 noundef %6, ptr noundef null)
  ret i32 %7
}

; Function Attrs: nounwind uwtable
define i32 @Java_sun_nio_ch_sctp_SctpNet_connect0(ptr noundef %0, ptr noundef %1, i32 noundef %2, ptr noundef %3, i32 noundef %4) #0 {
  %6 = alloca i32, align 4
  %7 = alloca ptr, align 8
  %8 = alloca ptr, align 8
  %9 = alloca i32, align 4
  %10 = alloca ptr, align 8
  %11 = alloca i32, align 4
  %12 = alloca %union.SOCKETADDRESS, align 4
  %13 = alloca i32, align 4
  %14 = alloca i32, align 4
  %15 = alloca %union.__CONST_SOCKADDR_ARG, align 8
  store ptr %0, ptr %7, align 8
  store ptr %1, ptr %8, align 8
  store i32 %2, ptr %9, align 4
  store ptr %3, ptr %10, align 8
  store i32 %4, ptr %11, align 4
  store i32 0, ptr %13, align 4
  %16 = load ptr, ptr %7, align 8
  %17 = load ptr, ptr %10, align 8
  %18 = load i32, ptr %11, align 4
  %19 = call i32 @NET_InetAddressToSockaddr(ptr noundef %16, ptr noundef %17, i32 noundef %18, ptr noundef %12, ptr noundef %13, i8 noundef zeroext 1)
  %20 = icmp ne i32 %19, 0
  br i1 %20, label %21, label %22

21:                                               ; preds = %5
  store i32 -5, ptr %6, align 4
  br label %47

22:                                               ; preds = %5
  %23 = load i32, ptr %9, align 4
  store ptr %12, ptr %15, align 8
  %24 = load i32, ptr %13, align 4
  %25 = getelementptr inbounds %union.__CONST_SOCKADDR_ARG, ptr %15, i32 0, i32 0
  %26 = load ptr, ptr %25, align 8
  %27 = call i32 @connect(i32 noundef %23, ptr %26, i32 noundef %24)
  store i32 %27, ptr %14, align 4
  %28 = load i32, ptr %14, align 4
  %29 = icmp ne i32 %28, 0
  br i1 %29, label %30, label %46

30:                                               ; preds = %22
  %31 = call ptr @__errno_location() #6
  %32 = load i32, ptr %31, align 4
  %33 = icmp eq i32 %32, 115
  br i1 %33, label %34, label %35

34:                                               ; preds = %30
  store i32 -2, ptr %6, align 4
  br label %47

35:                                               ; preds = %30
  %36 = call ptr @__errno_location() #6
  %37 = load i32, ptr %36, align 4
  %38 = icmp eq i32 %37, 4
  br i1 %38, label %39, label %40

39:                                               ; preds = %35
  store i32 -3, ptr %6, align 4
  br label %47

40:                                               ; preds = %35
  br label %41

41:                                               ; preds = %40
  %42 = load ptr, ptr %7, align 8
  %43 = call ptr @__errno_location() #6
  %44 = load i32, ptr %43, align 4
  %45 = call i32 @sctpHandleSocketError(ptr noundef %42, i32 noundef %44)
  store i32 %45, ptr %6, align 4
  br label %47

46:                                               ; preds = %22
  store i32 1, ptr %6, align 4
  br label %47

47:                                               ; preds = %46, %41, %39, %34, %21
  %48 = load i32, ptr %6, align 4
  ret i32 %48
}