; Function Attrs: nounwind uwtable
define range(i32 -5, 2) i32 @Java_sun_nio_ch_sctp_SctpNet_connect0(ptr noundef %0, ptr nocapture noundef readnone %1, i32 noundef %2, ptr noundef %3, i32 noundef %4) local_unnamed_addr #1 {
  %6 = alloca %union.SOCKETADDRESS, align 4
  %7 = alloca i32, align 4
  store i32 0, ptr %7, align 4
  %8 = call i32 @NET_InetAddressToSockaddr(ptr noundef %0, ptr noundef %3, i32 noundef %4, ptr noundef nonnull %6, ptr noundef nonnull %7, i8 noundef zeroext 1) #10
  %.not = icmp eq i32 %8, 0
  br i1 %.not, label %9, label %18

9:                                                ; preds = %5
  %10 = load i32, ptr %7, align 4
  %11 = call i32 @connect(i32 noundef %2, ptr nonnull %6, i32 noundef %10) #10
  %.not7 = icmp eq i32 %11, 0
  br i1 %.not7, label %18, label %12

12:                                               ; preds = %9
  %13 = tail call ptr @__errno_location() #9
  %14 = load i32, ptr %13, align 4
  switch i32 %14, label %16 [
    i32 115, label %18
    i32 4, label %15
  ]

15:                                               ; preds = %12
  br label %18

16:                                               ; preds = %12
  %17 = call range(i32 -5, 1) i32 @sctpHandleSocketErrorWithMessage(ptr noundef %0, i32 noundef %14, ptr noundef null)
  br label %18

18:                                               ; preds = %9, %12, %5, %16, %15
  %.0 = phi i32 [ -3, %15 ], [ %17, %16 ], [ -5, %5 ], [ -2, %12 ], [ 1, %9 ]
  ret i32 %.0
}